target datalayout = "e-m:e-p270:32:32-p271:32:32-p272:64:64-i64:64-i128:128-f80:128-n8:16:32:64-S128"
target triple = "x86_64-pc-linux-gnu"

%struct._GtkTreeIter = type { i32, ptr, ptr, ptr }
%struct.job_descriptor = type { ptr, ptr, ptr, ptr, i16, i32, i32, ptr, ptr, ptr, ptr, i64, i64, ptr, ptr, ptr, ptr, i16, ptr, ptr, i16, ptr, i16, i32, i32, i32, ptr, ptr, i64, i32, ptr, i64, ptr, %struct.slurm_hash_t, i32, ptr, ptr, ptr, i64, i64, i32, i32, ptr, i16, i32, ptr, ptr, i16, ptr, ptr, i16, ptr, ptr, ptr, i16, ptr, ptr, ptr, i32, i32, i16, i8, ptr, i16, i8, ptr, i16, ptr, i32, i32, ptr, i16, ptr, i16, ptr, i16, ptr, i16, ptr, ptr, %struct.slurm_hash_t, i16, i32, ptr, i32, ptr, i32, i32, i32, ptr, ptr, ptr, ptr, ptr, ptr, i32, i16, i16, i16, i16, ptr, i16, i32, i32, i32, i32, i16, i16, i16, i16, i16, i16, i16, i16, i16, i16, i16, i64, i32, ptr, i32, i16, ptr, ptr, ptr, ptr, ptr, i32, ptr, i16, ptr, ptr, i16 }
%struct.slurm_hash_t = type { i8, [32 x i8] }

@.str.30 = private unnamed_addr constant [11 x i8] c"job_info.c\00", align 1
@.str.33 = private unnamed_addr constant [1 x i8] zeroinitializer, align 1
@__func__.admin_edit_job = private unnamed_addr constant [15 x i8] c"admin_edit_job\00", align 1
@.str.40 = private unnamed_addr constant [7 x i8] c"column\00", align 1
@global_edit_error = external global i8, align 1
@got_edit_signal = internal global ptr null, align 8
@.str.41 = private unnamed_addr constant [20 x i8] c"No change in value.\00", align 1
@.str.42 = private unnamed_addr constant [24 x i8] c"Job %d %s changed to %s\00", align 1
@.str.43 = private unnamed_addr constant [34 x i8] c"Can only edit %s on pending jobs.\00", align 1
@.str.44 = private unnamed_addr constant [29 x i8] c"Job %d %s can't be set to %s\00", align 1
@sview_mutex = external global ptr, align 8

; Function Attrs: inlinehint nounwind willreturn memory(read) uwtable
define available_externally i32 @atoi(ptr noundef nonnull %0) #7 {
  %2 = alloca ptr, align 8
  store ptr %0, ptr %2, align 8
  %3 = load ptr, ptr %2, align 8
  %4 = call i64 @strtol(ptr noundef %3, ptr noundef null, i32 noundef 10) #11
  %5 = trunc i64 %4 to i32
  ret i32 %5
}

; Function Attrs: nounwind uwtable
define dso_local void @admin_edit_job(ptr noundef %0, ptr noundef %1, ptr noundef %2, ptr noundef %3) #0 {
  %5 = alloca ptr, align 8
  %6 = alloca ptr, align 8
  %7 = alloca ptr, align 8
  %8 = alloca ptr, align 8
  %9 = alloca ptr, align 8
  %10 = alloca ptr, align 8
  %11 = alloca %struct._GtkTreeIter, align 8
  %12 = alloca ptr, align 8
  %13 = alloca ptr, align 8
  %14 = alloca ptr, align 8
  %15 = alloca ptr, align 8
  %16 = alloca ptr, align 8
  %17 = alloca ptr, align 8
  %18 = alloca i32, align 4
  %19 = alloca i32, align 4
  store ptr %0, ptr %5, align 8
  store ptr %1, ptr %6, align 8
  store ptr %2, ptr %7, align 8
  store ptr %3, ptr %8, align 8
  call void @llvm.lifetime.start.p0(i64 8, ptr %9) #11
  %20 = load ptr, ptr %8, align 8
  %21 = call i64 @gtk_tree_store_get_type() #12
  %22 = call ptr @g_type_check_instance_cast(ptr noundef %20, i64 noundef %21)
  store ptr %22, ptr %9, align 8
  call void @llvm.lifetime.start.p0(i64 8, ptr %10) #11
  %23 = load ptr, ptr %6, align 8
  %24 = call ptr @gtk_tree_path_new_from_string(ptr noundef %23)
  store ptr %24, ptr %10, align 8
  call void @llvm.lifetime.start.p0(i64 32, ptr %11) #11
  call void @llvm.lifetime.start.p0(i64 8, ptr %12) #11
  %25 = call ptr @slurm_xcalloc(i64 noundef 1, i64 noundef 912, i1 noundef zeroext true, i1 noundef zeroext false, ptr noundef @.str.30, i32 noundef 3639, ptr noundef @__func__.admin_edit_job)
  store ptr %25, ptr %12, align 8
  call void @llvm.lifetime.start.p0(i64 8, ptr %13) #11
  store ptr null, ptr %13, align 8
  call void @llvm.lifetime.start.p0(i64 8, ptr %14) #11
  call void @llvm.lifetime.start.p0(i64 8, ptr %15) #11
  store ptr null, ptr %15, align 8
  call void @llvm.lifetime.start.p0(i64 8, ptr %16) #11
  store ptr null, ptr %16, align 8
  call void @llvm.lifetime.start.p0(i64 8, ptr %17) #11
  store ptr null, ptr %17, align 8
  call void @llvm.lifetime.start.p0(i64 4, ptr %18) #11
  store i32 -2, ptr %18, align 4
  call void @llvm.lifetime.start.p0(i64 4, ptr %19) #11
  %26 = load ptr, ptr %5, align 8
  %27 = call ptr @g_type_check_instance_cast(ptr noundef %26, i64 noundef 80)
  %28 = call ptr @g_object_get_data(ptr noundef %27, ptr noundef @.str.40)
  %29 = ptrtoint ptr %28 to i64
  %30 = trunc i64 %29 to i32
  store i32 %30, ptr %19, align 4
  %31 = load ptr, ptr %7, align 8
  %32 = icmp ne ptr %31, null
  br i1 %32, label %33, label %37

33:                                               ; preds = %4
  %34 = load ptr, ptr %7, align 8
  %35 = call i32 @xstrcmp(ptr noundef %34, ptr noundef @.str.33)
  %36 = icmp ne i32 %35, 0
  br i1 %36, label %38, label %37

37:                                               ; preds = %33, %4
  br label %144

38:                                               ; preds = %33
  %39 = load ptr, ptr %9, align 8
  %40 = call i64 @gtk_tree_model_get_type() #12
  %41 = call ptr @g_type_check_instance_cast(ptr noundef %39, i64 noundef %40)
  %42 = load ptr, ptr %10, align 8
  %43 = call i32 @gtk_tree_model_get_iter(ptr noundef %41, ptr noundef %11, ptr noundef %42)
  %44 = load ptr, ptr %12, align 8
  call void @slurm_init_job_desc_msg(ptr noundef %44)
  %45 = load ptr, ptr %9, align 8
  %46 = call i64 @gtk_tree_model_get_type() #12
  %47 = call ptr @g_type_check_instance_cast(ptr noundef %45, i64 noundef %46)
  %48 = load i32, ptr %19, align 4
  call void (ptr, ptr, ...) @gtk_tree_model_get(ptr noundef %47, ptr noundef %11, i32 noundef 36, ptr noundef %13, i32 noundef %48, ptr noundef %16, i32 noundef -1)
  %49 = load ptr, ptr %13, align 8
  %50 = icmp ne ptr %49, null
  br i1 %50, label %52, label %51

51:                                               ; preds = %38
  br label %144

52:                                               ; preds = %38
  %53 = load ptr, ptr %13, align 8
  %54 = call ptr @strchr(ptr noundef %53, i32 noundef 40) #14
  store ptr %54, ptr %14, align 8
  %55 = load ptr, ptr %14, align 8
  %56 = icmp ne ptr %55, null
  br i1 %56, label %57, label %60

57:                                               ; preds = %52
  %58 = load ptr, ptr %14, align 8
  %59 = getelementptr inbounds nuw i8, ptr %58, i32 1
  store ptr %59, ptr %14, align 8
  br label %62

60:                                               ; preds = %52
  %61 = load ptr, ptr %13, align 8
  store ptr %61, ptr %14, align 8
  br label %62

62:                                               ; preds = %60, %57
  %63 = load ptr, ptr %14, align 8
  %64 = call i32 @atoi(ptr noundef %63) #14
  %65 = load ptr, ptr %12, align 8
  %66 = getelementptr inbounds nuw %struct.job_descriptor, ptr %65, i32 0, i32 44
  store i32 %64, ptr %66, align 4
  %67 = load ptr, ptr %13, align 8
  call void @g_free(ptr noundef %67)
  %68 = load ptr, ptr %9, align 8
  %69 = call i64 @gtk_tree_model_get_type() #12
  %70 = call ptr @g_type_check_instance_cast(ptr noundef %68, i64 noundef %69)
  call void (ptr, ptr, ...) @gtk_tree_model_get(ptr noundef %70, ptr noundef %11, i32 noundef 3, ptr noundef %18, i32 noundef -1)
  %71 = load i32, ptr %18, align 4
  %72 = icmp ne i32 %71, 0
  br i1 %72, label %73, label %74

73:                                               ; preds = %62
  store i32 -2, ptr %18, align 4
  br label %83

74:                                               ; preds = %62
  %75 = load ptr, ptr %12, align 8
  %76 = getelementptr inbounds nuw %struct.job_descriptor, ptr %75, i32 0, i32 44
  %77 = load i32, ptr %76, align 4
  store i32 %77, ptr %18, align 4
  %78 = load ptr, ptr %9, align 8
  %79 = call i64 @gtk_tree_model_get_type() #12
  %80 = call ptr @g_type_check_instance_cast(ptr noundef %78, i64 noundef %79)
  %81 = load ptr, ptr %12, align 8
  %82 = getelementptr inbounds nuw %struct.job_descriptor, ptr %81, i32 0, i32 44
  call void (ptr, ptr, ...) @gtk_tree_model_get(ptr noundef %80, ptr noundef %11, i32 noundef 0, ptr noundef %82, i32 noundef -1)
  br label %83

83:                                               ; preds = %74, %73
  %84 = load ptr, ptr %12, align 8
  %85 = load ptr, ptr %7, align 8
  %86 = load i32, ptr %19, align 4
  %87 = call ptr @_set_job_msg(ptr noundef %84, ptr noundef %85, i32 noundef %86)
  store ptr %87, ptr %17, align 8
  %88 = load i8, ptr @global_edit_error, align 1, !range !18, !noundef !19
  %89 = trunc i8 %88 to i1
  br i1 %89, label %90, label %91

90:                                               ; preds = %83
  br label %132

91:                                               ; preds = %83
  %92 = load ptr, ptr @got_edit_signal, align 8
  %93 = icmp ne ptr %92, null
  br i1 %93, label %94, label %100

94:                                               ; preds = %91
  %95 = load ptr, ptr @got_edit_signal, align 8
  store ptr %95, ptr %15, align 8
  store ptr null, ptr @got_edit_signal, align 8
  %96 = load ptr, ptr %9, align 8
  %97 = call i64 @gtk_tree_model_get_type() #12
  %98 = call ptr @g_type_check_instance_cast(ptr noundef %96, i64 noundef %97)
  %99 = load ptr, ptr %15, align 8
  call void @admin_job(ptr noundef %98, ptr noundef %11, ptr noundef %99, ptr noundef null)
  call void @slurm_xfree(ptr noundef %15)
  br label %144

100:                                              ; preds = %91
  %101 = load ptr, ptr %16, align 8
  %102 = icmp ne ptr %101, null
  br i1 %102, label %103, label %110

103:                                              ; preds = %100
  %104 = load ptr, ptr %16, align 8
  %105 = load ptr, ptr %7, align 8
  %106 = call i32 @xstrcmp(ptr noundef %104, ptr noundef %105)
  %107 = icmp ne i32 %106, 0
  br i1 %107, label %110, label %108

108:                                              ; preds = %103
  %109 = call noalias ptr (ptr, ...) @g_strdup_printf(ptr noundef @.str.41)
  store ptr %109, ptr %15, align 8
  br label %141

110:                                              ; preds = %103, %100
  %111 = load ptr, ptr %12, align 8
  %112 = call i32 @slurm_update_job(ptr noundef %111)
  %113 = icmp eq i32 %112, 0
  br i1 %113, label %114, label %124

114:                                              ; preds = %110
  %115 = load ptr, ptr %9, align 8
  %116 = load i32, ptr %19, align 4
  %117 = load ptr, ptr %7, align 8
  call void (ptr, ptr, ...) @gtk_tree_store_set(ptr noundef %115, ptr noundef %11, i32 noundef %116, ptr noundef %117, i32 noundef -1)
  %118 = load ptr, ptr %12, align 8
  %119 = getelementptr inbounds nuw %struct.job_descriptor, ptr %118, i32 0, i32 44
  %120 = load i32, ptr %119, align 4
  %121 = load ptr, ptr %17, align 8
  %122 = load ptr, ptr %7, align 8
  %123 = call noalias ptr (ptr, ...) @g_strdup_printf(ptr noundef @.str.42, i32 noundef %120, ptr noundef %121, ptr noundef %122)
  store ptr %123, ptr %15, align 8
  br label %140

124:                                              ; preds = %110
  %125 = call ptr @__errno_location() #12
  %126 = load i32, ptr %125, align 4
  %127 = icmp eq i32 %126, 2037
  br i1 %127, label %128, label %131

128:                                              ; preds = %124
  %129 = load ptr, ptr %17, align 8
  %130 = call noalias ptr (ptr, ...) @g_strdup_printf(ptr noundef @.str.43, ptr noundef %129)
  store ptr %130, ptr %15, align 8
  br label %139

131:                                              ; preds = %124
  br label %132

132:                                              ; preds = %131, %90
  %133 = load ptr, ptr %12, align 8
  %134 = getelementptr inbounds nuw %struct.job_descriptor, ptr %133, i32 0, i32 44
  %135 = load i32, ptr %134, align 4
  %136 = load ptr, ptr %17, align 8
  %137 = load ptr, ptr %7, align 8
  %138 = call noalias ptr (ptr, ...) @g_strdup_printf(ptr noundef @.str.44, i32 noundef %135, ptr noundef %136, ptr noundef %137)
  store ptr %138, ptr %15, align 8
  br label %139

139:                                              ; preds = %132, %128
  br label %140

140:                                              ; preds = %139, %114
  br label %141

141:                                              ; preds = %140, %108
  %142 = load ptr, ptr %15, align 8
  call void @display_edit_note(ptr noundef %142)
  %143 = load ptr, ptr %15, align 8
  call void @g_free(ptr noundef %143)
  br label %144

144:                                              ; preds = %141, %94, %51, %37
  %145 = load ptr, ptr %12, align 8
  call void @slurm_free_job_desc_msg(ptr noundef %145)
  %146 = load ptr, ptr %10, align 8
  call void @gtk_tree_path_free(ptr noundef %146)
  %147 = load ptr, ptr %16, align 8
  call void @g_free(ptr noundef %147)
  %148 = load ptr, ptr @sview_mutex, align 8
  call void @g_mutex_unlock(ptr noundef %148)
  call void @llvm.lifetime.end.p0(i64 4, ptr %19) #11
  call void @llvm.lifetime.end.p0(i64 4, ptr %18) #11
  call void @llvm.lifetime.end.p0(i64 8, ptr %17) #11
  call void @llvm.lifetime.end.p0(i64 8, ptr %16) #11
  call void @llvm.lifetime.end.p0(i64 8, ptr %15) #11
  call void @llvm.lifetime.end.p0(i64 8, ptr %14) #11
  call void @llvm.lifetime.end.p0(i64 8, ptr %13) #11
  call void @llvm.lifetime.end.p0(i64 8, ptr %12) #11
  call void @llvm.lifetime.end.p0(i64 32, ptr %11) #11
  call void @llvm.lifetime.end.p0(i64 8, ptr %10) #11
  call void @llvm.lifetime.end.p0(i64 8, ptr %9) #11
  ret void
}