; Function Attrs: nounwind uwtable
define dso_local void @admin_edit_job(ptr noundef %0, ptr noundef %1, ptr noundef %2, ptr noundef %3) #0 {
  %5 = alloca %struct._GtkTreeIter, align 8
  %6 = alloca ptr, align 8
  %7 = alloca ptr, align 8
  %8 = alloca ptr, align 8
  %9 = alloca i32, align 4
  %10 = tail call i64 @gtk_tree_store_get_type() #17
  %11 = tail call ptr @g_type_check_instance_cast(ptr noundef %3, i64 noundef %10) #16
  %12 = tail call ptr @gtk_tree_path_new_from_string(ptr noundef %1) #16
  call void @llvm.lifetime.start.p0(i64 32, ptr nonnull %5) #16
  %13 = tail call ptr @slurm_xcalloc(i64 noundef 1, i64 noundef 912, i1 noundef zeroext true, i1 noundef zeroext false, ptr noundef nonnull @.str.30, i32 noundef 3639, ptr noundef nonnull @__func__.admin_edit_job) #16
  call void @llvm.lifetime.start.p0(i64 8, ptr nonnull %6) #16
  store ptr null, ptr %6, align 8
  call void @llvm.lifetime.start.p0(i64 8, ptr nonnull %7) #16
  store ptr null, ptr %7, align 8
  call void @llvm.lifetime.start.p0(i64 8, ptr nonnull %8) #16
  store ptr null, ptr %8, align 8
  call void @llvm.lifetime.start.p0(i64 4, ptr nonnull %9) #16
  store i32 -2, ptr %9, align 4
  %14 = tail call ptr @g_type_check_instance_cast(ptr noundef %0, i64 noundef 80) #16
  %15 = tail call ptr @g_object_get_data(ptr noundef %14, ptr noundef nonnull @.str.40) #16
  %16 = ptrtoint ptr %15 to i64
  %17 = trunc i64 %16 to i32
  %.not = icmp eq ptr %2, null
  br i1 %.not, label %69, label %18

18:                                               ; preds = %4
  %19 = tail call i32 @xstrcmp(ptr noundef nonnull %2, ptr noundef nonnull @.str.33) #16
  %.not40 = icmp eq i32 %19, 0
  br i1 %.not40, label %69, label %20

20:                                               ; preds = %18
  %21 = tail call i64 @gtk_tree_model_get_type() #17
  %22 = tail call ptr @g_type_check_instance_cast(ptr noundef %11, i64 noundef %21) #16
  %23 = call i32 @gtk_tree_model_get_iter(ptr noundef %22, ptr noundef nonnull %5, ptr noundef %12) #16
  call void @slurm_init_job_desc_msg(ptr noundef %13) #16
  %24 = call ptr @g_type_check_instance_cast(ptr noundef %11, i64 noundef %21) #16
  call void (ptr, ptr, ...) @gtk_tree_model_get(ptr noundef %24, ptr noundef nonnull %5, i32 noundef 36, ptr noundef nonnull %6, i32 noundef %17, ptr noundef nonnull %8, i32 noundef -1) #16
  %25 = load ptr, ptr %6, align 8
  %.not41 = icmp eq ptr %25, null
  br i1 %.not41, label %69, label %26

26:                                               ; preds = %20
  %27 = call ptr @strchr(ptr noundef nonnull dereferenceable(1) %25, i32 noundef 40) #19
  %.not42 = icmp eq ptr %27, null
  %28 = getelementptr inbounds nuw i8, ptr %27, i64 1
  %.0 = select i1 %.not42, ptr %25, ptr %28
  %29 = call i64 @strtol(ptr noundef nonnull captures(none) %.0, ptr noundef null, i32 noundef 10) #16
  %30 = trunc i64 %29 to i32
  %31 = getelementptr inbounds nuw i8, ptr %13, i64 340
  store i32 %30, ptr %31, align 4
  %32 = load ptr, ptr %6, align 8
  call void @g_free(ptr noundef %32) #16
  %33 = call ptr @g_type_check_instance_cast(ptr noundef %11, i64 noundef %21) #16
  call void (ptr, ptr, ...) @gtk_tree_model_get(ptr noundef %33, ptr noundef nonnull %5, i32 noundef 3, ptr noundef nonnull %9, i32 noundef -1) #16
  %34 = load i32, ptr %9, align 4
  %.not43 = icmp eq i32 %34, 0
  br i1 %.not43, label %36, label %35

35:                                               ; preds = %26
  store i32 -2, ptr %9, align 4
  br label %39

36:                                               ; preds = %26
  %37 = load i32, ptr %31, align 4
  store i32 %37, ptr %9, align 4
  %38 = call ptr @g_type_check_instance_cast(ptr noundef %11, i64 noundef %21) #16
  call void (ptr, ptr, ...) @gtk_tree_model_get(ptr noundef %38, ptr noundef nonnull %5, i32 noundef 0, ptr noundef nonnull %31, i32 noundef -1) #16
  br label %39

39:                                               ; preds = %36, %35
  %40 = call fastcc ptr @_set_job_msg(ptr noundef nonnull %13, ptr noundef nonnull %2, i32 noundef %17)
  %41 = load i8, ptr @global_edit_error, align 1, !range !18, !noundef !19
  %42 = trunc nuw i8 %41 to i1
  br i1 %42, label %65, label %43

43:                                               ; preds = %39
  %44 = load ptr, ptr @got_edit_signal, align 8
  %.not44 = icmp eq ptr %44, null
  br i1 %.not44, label %47, label %45

45:                                               ; preds = %43
  store ptr %44, ptr %7, align 8
  store ptr null, ptr @got_edit_signal, align 8
  %46 = call ptr @g_type_check_instance_cast(ptr noundef %11, i64 noundef %21) #16
  call void @admin_job(ptr noundef %46, ptr noundef nonnull %5, ptr noundef nonnull %44, ptr noundef null)
  call void @slurm_xfree(ptr noundef nonnull %7) #16
  br label %69

47:                                               ; preds = %43
  %48 = load ptr, ptr %8, align 8
  %.not45 = icmp eq ptr %48, null
  br i1 %.not45, label %53, label %49

49:                                               ; preds = %47
  %50 = call i32 @xstrcmp(ptr noundef nonnull %48, ptr noundef nonnull %2) #16
  %.not46 = icmp eq i32 %50, 0
  br i1 %.not46, label %51, label %53

51:                                               ; preds = %49
  %52 = call noalias ptr (ptr, ...) @g_strdup_printf(ptr noundef nonnull @.str.41) #16
  br label %68

53:                                               ; preds = %49, %47
  %54 = call i32 @slurm_update_job(ptr noundef nonnull %13) #16
  %55 = icmp eq i32 %54, 0
  br i1 %55, label %56, label %59

56:                                               ; preds = %53
  call void (ptr, ptr, ...) @gtk_tree_store_set(ptr noundef %11, ptr noundef nonnull %5, i32 noundef %17, ptr noundef nonnull %2, i32 noundef -1) #16
  %57 = load i32, ptr %31, align 4
  %58 = call noalias ptr (ptr, ...) @g_strdup_printf(ptr noundef nonnull @.str.42, i32 noundef %57, ptr noundef %40, ptr noundef nonnull %2) #16
  br label %68

59:                                               ; preds = %53
  %60 = tail call ptr @__errno_location() #17
  %61 = load i32, ptr %60, align 4
  %62 = icmp eq i32 %61, 2037
  br i1 %62, label %63, label %65

63:                                               ; preds = %59
  %64 = call noalias ptr (ptr, ...) @g_strdup_printf(ptr noundef nonnull @.str.43, ptr noundef %40) #16
  br label %68

65:                                               ; preds = %59, %39
  %66 = load i32, ptr %31, align 4
  %67 = call noalias ptr (ptr, ...) @g_strdup_printf(ptr noundef nonnull @.str.44, i32 noundef %66, ptr noundef %40, ptr noundef nonnull %2) #16
  br label %68

68:                                               ; preds = %56, %65, %63, %51
  %.sink = phi ptr [ %58, %56 ], [ %67, %65 ], [ %64, %63 ], [ %52, %51 ]
  store ptr %.sink, ptr %7, align 8
  call void @display_edit_note(ptr noundef %.sink) #16
  call void @g_free(ptr noundef %.sink) #16
  br label %69

69:                                               ; preds = %20, %4, %18, %68, %45
  call void @slurm_free_job_desc_msg(ptr noundef %13) #16
  call void @gtk_tree_path_free(ptr noundef %12) #16
  %70 = load ptr, ptr %8, align 8
  call void @g_free(ptr noundef %70) #16
  %71 = load ptr, ptr @sview_mutex, align 8
  call void @g_mutex_unlock(ptr noundef %71) #16
  call void @llvm.lifetime.end.p0(i64 4, ptr nonnull %9) #16
  call void @llvm.lifetime.end.p0(i64 8, ptr nonnull %8) #16
  call void @llvm.lifetime.end.p0(i64 8, ptr nonnull %7) #16
  call void @llvm.lifetime.end.p0(i64 8, ptr nonnull %6) #16
  call void @llvm.lifetime.end.p0(i64 32, ptr nonnull %5) #16
  ret void
}